target datalayout = "e-m:e-p270:32:32-p271:32:32-p272:64:64-i64:64-i128:128-f80:128-n8:16:32:64-S128"
target triple = "x86_64-unknown-linux-gnu"

%"class.sat::literal" = type { i32 }
%class.anon = type { ptr }

; Function Attrs: mustprogress uwtable
define internal void @"_ZZN3smt10theory_seq4initEvENK3$_0clEN3sat7literalES3_S3_S3_S3_"(ptr noundef nonnull align 8 dereferenceable(8) %this, i32 %l1.coerce, i32 %l2.coerce, i32 %l3.coerce, i32 %l4.coerce, i32 %l5.coerce) #5 align 2 {
entry:
  %l1 = alloca %"class.sat::literal", align 4
  %l2 = alloca %"class.sat::literal", align 4
  %l3 = alloca %"class.sat::literal", align 4
  %l4 = alloca %"class.sat::literal", align 4
  %l5 = alloca %"class.sat::literal", align 4
  %this.addr = alloca ptr, align 8
  %agg.tmp = alloca %"class.sat::literal", align 4
  %agg.tmp6 = alloca %"class.sat::literal", align 4
  %agg.tmp7 = alloca %"class.sat::literal", align 4
  %agg.tmp8 = alloca %"class.sat::literal", align 4
  %agg.tmp9 = alloca %"class.sat::literal", align 4
  %coerce.dive = getelementptr inbounds %"class.sat::literal", ptr %l1, i32 0, i32 0
  store i32 %l1.coerce, ptr %coerce.dive, align 4
  %coerce.dive1 = getelementptr inbounds %"class.sat::literal", ptr %l2, i32 0, i32 0
  store i32 %l2.coerce, ptr %coerce.dive1, align 4
  %coerce.dive2 = getelementptr inbounds %"class.sat::literal", ptr %l3, i32 0, i32 0
  store i32 %l3.coerce, ptr %coerce.dive2, align 4
  %coerce.dive3 = getelementptr inbounds %"class.sat::literal", ptr %l4, i32 0, i32 0
  store i32 %l4.coerce, ptr %coerce.dive3, align 4
  %coerce.dive4 = getelementptr inbounds %"class.sat::literal", ptr %l5, i32 0, i32 0
  store i32 %l5.coerce, ptr %coerce.dive4, align 4
  store ptr %this, ptr %this.addr, align 8
  %this5 = load ptr, ptr %this.addr, align 8
  %0 = getelementptr inbounds %class.anon, ptr %this5, i32 0, i32 0
  %1 = load ptr, ptr %0, align 8
  call void @llvm.memcpy.p0.p0.i64(ptr align 4 %agg.tmp, ptr align 4 %l1, i64 4, i1 false)
  call void @llvm.memcpy.p0.p0.i64(ptr align 4 %agg.tmp6, ptr align 4 %l2, i64 4, i1 false)
  call void @llvm.memcpy.p0.p0.i64(ptr align 4 %agg.tmp7, ptr align 4 %l3, i64 4, i1 false)
  call void @llvm.memcpy.p0.p0.i64(ptr align 4 %agg.tmp8, ptr align 4 %l4, i64 4, i1 false)
  call void @llvm.memcpy.p0.p0.i64(ptr align 4 %agg.tmp9, ptr align 4 %l5, i64 4, i1 false)
  %coerce.dive10 = getelementptr inbounds %"class.sat::literal", ptr %agg.tmp, i32 0, i32 0
  %2 = load i32, ptr %coerce.dive10, align 4
  %coerce.dive11 = getelementptr inbounds %"class.sat::literal", ptr %agg.tmp6, i32 0, i32 0
  %3 = load i32, ptr %coerce.dive11, align 4
  %coerce.dive12 = getelementptr inbounds %"class.sat::literal", ptr %agg.tmp7, i32 0, i32 0
  %4 = load i32, ptr %coerce.dive12, align 4
  %coerce.dive13 = getelementptr inbounds %"class.sat::literal", ptr %agg.tmp8, i32 0, i32 0
  %5 = load i32, ptr %coerce.dive13, align 4
  %coerce.dive14 = getelementptr inbounds %"class.sat::literal", ptr %agg.tmp9, i32 0, i32 0
  %6 = load i32, ptr %coerce.dive14, align 4
  call void @_ZN3smt10theory_seq9add_axiomEN3sat7literalES2_S2_S2_S2_(ptr noundef nonnull align 8 dereferenceable(4328) %1, i32 %2, i32 %3, i32 %4, i32 %5, i32 %6)
  ret void
}

; Function Attrs: mustprogress nounwind uwtable
define linkonce_odr hidden noundef ptr @_ZNKSt9_Any_data9_M_accessEv(ptr noundef nonnull align 8 dereferenceable(16) %this) #4 comdat align 2 {
entry:
  %this.addr = alloca ptr, align 8
  store ptr %this, ptr %this.addr, align 8
  %this1 = load ptr, ptr %this.addr, align 8
  %arrayidx = getelementptr inbounds [16 x i8], ptr %this1, i64 0, i64 0
  ret ptr %arrayidx
}

; Function Attrs: mustprogress uwtable
define internal void @"_ZSt13__invoke_implIvRZN3smt10theory_seq4initEvE3$_0JN3sat7literalES5_S5_S5_S5_EET_St14__invoke_otherOT0_DpOT1_"(ptr noundef nonnull align 8 dereferenceable(8) %__f, ptr noundef nonnull align 4 dereferenceable(4) %__args, ptr noundef nonnull align 4 dereferenceable(4) %__args1, ptr noundef nonnull align 4 dereferenceable(4) %__args3, ptr noundef nonnull align 4 dereferenceable(4) %__args5, ptr noundef nonnull align 4 dereferenceable(4) %__args7) #5 {
entry:
  %__f.addr = alloca ptr, align 8
  %__args.addr = alloca ptr, align 8
  %__args.addr2 = alloca ptr, align 8
  %__args.addr4 = alloca ptr, align 8
  %__args.addr6 = alloca ptr, align 8
  %__args.addr8 = alloca ptr, align 8
  %agg.tmp = alloca %"class.sat::literal", align 4
  %agg.tmp9 = alloca %"class.sat::literal", align 4
  %agg.tmp10 = alloca %"class.sat::literal", align 4
  %agg.tmp11 = alloca %"class.sat::literal", align 4
  %agg.tmp12 = alloca %"class.sat::literal", align 4
  store ptr %__f, ptr %__f.addr, align 8
  store ptr %__args, ptr %__args.addr, align 8
  store ptr %__args1, ptr %__args.addr2, align 8
  store ptr %__args3, ptr %__args.addr4, align 8
  store ptr %__args5, ptr %__args.addr6, align 8
  store ptr %__args7, ptr %__args.addr8, align 8
  %0 = load ptr, ptr %__f.addr, align 8
  %1 = load ptr, ptr %__args.addr, align 8
  call void @llvm.memcpy.p0.p0.i64(ptr align 4 %agg.tmp, ptr align 4 %1, i64 4, i1 false)
  %2 = load ptr, ptr %__args.addr2, align 8
  call void @llvm.memcpy.p0.p0.i64(ptr align 4 %agg.tmp9, ptr align 4 %2, i64 4, i1 false)
  %3 = load ptr, ptr %__args.addr4, align 8
  call void @llvm.memcpy.p0.p0.i64(ptr align 4 %agg.tmp10, ptr align 4 %3, i64 4, i1 false)
  %4 = load ptr, ptr %__args.addr6, align 8
  call void @llvm.memcpy.p0.p0.i64(ptr align 4 %agg.tmp11, ptr align 4 %4, i64 4, i1 false)
  %5 = load ptr, ptr %__args.addr8, align 8
  call void @llvm.memcpy.p0.p0.i64(ptr align 4 %agg.tmp12, ptr align 4 %5, i64 4, i1 false)
  %coerce.dive = getelementptr inbounds %"class.sat::literal", ptr %agg.tmp, i32 0, i32 0
  %6 = load i32, ptr %coerce.dive, align 4
  %coerce.dive13 = getelementptr inbounds %"class.sat::literal", ptr %agg.tmp9, i32 0, i32 0
  %7 = load i32, ptr %coerce.dive13, align 4
  %coerce.dive14 = getelementptr inbounds %"class.sat::literal", ptr %agg.tmp10, i32 0, i32 0
  %8 = load i32, ptr %coerce.dive14, align 4
  %coerce.dive15 = getelementptr inbounds %"class.sat::literal", ptr %agg.tmp11, i32 0, i32 0
  %9 = load i32, ptr %coerce.dive15, align 4
  %coerce.dive16 = getelementptr inbounds %"class.sat::literal", ptr %agg.tmp12, i32 0, i32 0
  %10 = load i32, ptr %coerce.dive16, align 4
  call void @"_ZZN3smt10theory_seq4initEvENK3$_0clEN3sat7literalES3_S3_S3_S3_"(ptr noundef nonnull align 8 dereferenceable(8) %0, i32 %6, i32 %7, i32 %8, i32 %9, i32 %10)
  ret void
}

; Function Attrs: mustprogress nounwind uwtable
define internal noundef nonnull align 8 dereferenceable(8) ptr @"_ZNKSt9_Any_data9_M_accessIZN3smt10theory_seq4initEvE3$_0EERKT_v"(ptr noundef nonnull align 8 dereferenceable(16) %this) #4 align 2 {
entry:
  %this.addr = alloca ptr, align 8
  store ptr %this, ptr %this.addr, align 8
  %this1 = load ptr, ptr %this.addr, align 8
  %call = call noundef ptr @_ZNKSt9_Any_data9_M_accessEv(ptr noundef nonnull align 8 dereferenceable(16) %this1) #3
  ret ptr %call
}

; Function Attrs: mustprogress uwtable
define internal void @"_ZSt10__invoke_rIvRZN3smt10theory_seq4initEvE3$_0JN3sat7literalES5_S5_S5_S5_EENSt9enable_ifIX16is_invocable_r_vIT_T0_DpT1_EES7_E4typeEOS8_DpOS9_"(ptr noundef nonnull align 8 dereferenceable(8) %__fn, ptr noundef nonnull align 4 dereferenceable(4) %__args, ptr noundef nonnull align 4 dereferenceable(4) %__args1, ptr noundef nonnull align 4 dereferenceable(4) %__args3, ptr noundef nonnull align 4 dereferenceable(4) %__args5, ptr noundef nonnull align 4 dereferenceable(4) %__args7) #5 {
entry:
  %__fn.addr = alloca ptr, align 8
  %__args.addr = alloca ptr, align 8
  %__args.addr2 = alloca ptr, align 8
  %__args.addr4 = alloca ptr, align 8
  %__args.addr6 = alloca ptr, align 8
  %__args.addr8 = alloca ptr, align 8
  store ptr %__fn, ptr %__fn.addr, align 8
  store ptr %__args, ptr %__args.addr, align 8
  store ptr %__args1, ptr %__args.addr2, align 8
  store ptr %__args3, ptr %__args.addr4, align 8
  store ptr %__args5, ptr %__args.addr6, align 8
  store ptr %__args7, ptr %__args.addr8, align 8
  %0 = load ptr, ptr %__fn.addr, align 8
  %1 = load ptr, ptr %__args.addr, align 8
  %2 = load ptr, ptr %__args.addr2, align 8
  %3 = load ptr, ptr %__args.addr4, align 8
  %4 = load ptr, ptr %__args.addr6, align 8
  %5 = load ptr, ptr %__args.addr8, align 8
  call void @"_ZSt13__invoke_implIvRZN3smt10theory_seq4initEvE3$_0JN3sat7literalES5_S5_S5_S5_EET_St14__invoke_otherOT0_DpOT1_"(ptr noundef nonnull align 8 dereferenceable(8) %0, ptr noundef nonnull align 4 dereferenceable(4) %1, ptr noundef nonnull align 4 dereferenceable(4) %2, ptr noundef nonnull align 4 dereferenceable(4) %3, ptr noundef nonnull align 4 dereferenceable(4) %4, ptr noundef nonnull align 4 dereferenceable(4) %5)
  ret void
}

; Function Attrs: mustprogress nounwind uwtable
define internal noundef ptr @"_ZNSt14_Function_base13_Base_managerIZN3smt10theory_seq4initEvE3$_0E14_M_get_pointerERKSt9_Any_data"(ptr noundef nonnull align 8 dereferenceable(16) %__source) #4 align 2 {
entry:
  %__source.addr = alloca ptr, align 8
  %__f = alloca ptr, align 8
  store ptr %__source, ptr %__source.addr, align 8
  %0 = load ptr, ptr %__source.addr, align 8
  %call = call noundef nonnull align 8 dereferenceable(8) ptr @"_ZNKSt9_Any_data9_M_accessIZN3smt10theory_seq4initEvE3$_0EERKT_v"(ptr noundef nonnull align 8 dereferenceable(16) %0) #3
  store ptr %call, ptr %__f, align 8
  %1 = load ptr, ptr %__f, align 8
  ret ptr %1
}

; Function Attrs: mustprogress uwtable
define internal void @"_ZNSt17_Function_handlerIFvN3sat7literalES1_S1_S1_S1_EZN3smt10theory_seq4initEvE3$_0E9_M_invokeERKSt9_Any_dataOS1_SA_SA_SA_SA_"(ptr noundef nonnull align 8 dereferenceable(16) %__functor, ptr noundef nonnull align 4 dereferenceable(4) %__args, ptr noundef nonnull align 4 dereferenceable(4) %__args1, ptr noundef nonnull align 4 dereferenceable(4) %__args3, ptr noundef nonnull align 4 dereferenceable(4) %__args5, ptr noundef nonnull align 4 dereferenceable(4) %__args7) #5 align 2 {
entry:
  %__functor.addr = alloca ptr, align 8
  %__args.addr = alloca ptr, align 8
  %__args.addr2 = alloca ptr, align 8
  %__args.addr4 = alloca ptr, align 8
  %__args.addr6 = alloca ptr, align 8
  %__args.addr8 = alloca ptr, align 8
  store ptr %__functor, ptr %__functor.addr, align 8
  store ptr %__args, ptr %__args.addr, align 8
  store ptr %__args1, ptr %__args.addr2, align 8
  store ptr %__args3, ptr %__args.addr4, align 8
  store ptr %__args5, ptr %__args.addr6, align 8
  store ptr %__args7, ptr %__args.addr8, align 8
  %0 = load ptr, ptr %__functor.addr, align 8
  %call = call noundef ptr @"_ZNSt14_Function_base13_Base_managerIZN3smt10theory_seq4initEvE3$_0E14_M_get_pointerERKSt9_Any_data"(ptr noundef nonnull align 8 dereferenceable(16) %0) #3
  %1 = load ptr, ptr %__args.addr, align 8
  %2 = load ptr, ptr %__args.addr2, align 8
  %3 = load ptr, ptr %__args.addr4, align 8
  %4 = load ptr, ptr %__args.addr6, align 8
  %5 = load ptr, ptr %__args.addr8, align 8
  call void @"_ZSt10__invoke_rIvRZN3smt10theory_seq4initEvE3$_0JN3sat7literalES5_S5_S5_S5_EENSt9enable_ifIX16is_invocable_r_vIT_T0_DpT1_EES7_E4typeEOS8_DpOS9_"(ptr noundef nonnull align 8 dereferenceable(8) %call, ptr noundef nonnull align 4 dereferenceable(4) %1, ptr noundef nonnull align 4 dereferenceable(4) %2, ptr noundef nonnull align 4 dereferenceable(4) %3, ptr noundef nonnull align 4 dereferenceable(4) %4, ptr noundef nonnull align 4 dereferenceable(4) %5)
  ret void
}