; Function Attrs: mustprogress uwtable
define internal void @"_ZNSt17_Function_handlerIFvN3sat7literalES1_S1_S1_S1_EZN3smt10theory_seq4initEvE3$_0E9_M_invokeERKSt9_Any_dataOS1_SA_SA_SA_SA_"(ptr nocapture noundef nonnull readonly align 8 dereferenceable(16) %__functor, ptr nocapture noundef nonnull readonly align 4 dereferenceable(4) %__args, ptr nocapture noundef nonnull readonly align 4 dereferenceable(4) %__args1, ptr nocapture noundef nonnull readonly align 4 dereferenceable(4) %__args3, ptr nocapture noundef nonnull readonly align 4 dereferenceable(4) %__args5, ptr nocapture noundef nonnull readonly align 4 dereferenceable(4) %__args7) #3 align 2 {
entry:
  %call.val = load ptr, ptr %__functor, align 8
  %__args.val = load i32, ptr %__args, align 4
  %__args1.val = load i32, ptr %__args1, align 4
  %__args3.val = load i32, ptr %__args3, align 4
  %__args5.val = load i32, ptr %__args5, align 4
  %__args7.val = load i32, ptr %__args7, align 4
  tail call void @_ZN3smt10theory_seq9add_axiomEN3sat7literalES2_S2_S2_S2_(ptr noundef nonnull align 8 dereferenceable(4328) %call.val, i32 %__args.val, i32 %__args1.val, i32 %__args3.val, i32 %__args5.val, i32 %__args7.val)
  ret void
}